; Function Attrs: mustprogress uwtable
define hidden void @_ZN2cv9BitStream5closeEv(ptr noundef nonnull align 8 dereferenceable(569) %0) local_unnamed_addr #4 align 2 {
  %2 = getelementptr inbounds nuw i8, ptr %0, i64 552
  %3 = load ptr, ptr %2, align 8, !tbaa !133
  %4 = getelementptr inbounds nuw i8, ptr %0, i64 536
  %5 = load ptr, ptr %4, align 8, !tbaa !123
  %6 = ptrtoint ptr %3 to i64
  %7 = ptrtoint ptr %5 to i64
  %8 = sub i64 %6, %7
  %9 = icmp sgt i64 %8, 0
  br i1 %9, label %10, label %_ZN2cv9BitStream10writeBlockEv.exit

10:                                               ; preds = %1
  %11 = tail call noundef nonnull align 8 dereferenceable(8) ptr @_ZNSo5writeEPKcl(ptr noundef nonnull align 8 dereferenceable(569) %0, ptr noundef %5, i64 noundef %8)
  %.pre.i = load ptr, ptr %4, align 8, !tbaa !123
  br label %_ZN2cv9BitStream10writeBlockEv.exit

_ZN2cv9BitStream10writeBlockEv.exit:              ; preds = %1, %10
  %12 = phi ptr [ %.pre.i, %10 ], [ %5, %1 ]
  %13 = getelementptr inbounds nuw i8, ptr %0, i64 560
  %14 = load i64, ptr %13, align 8, !tbaa !134
  %15 = add i64 %14, %8
  store i64 %15, ptr %13, align 8, !tbaa !134
  store ptr %12, ptr %2, align 8, !tbaa !133
  %16 = getelementptr inbounds nuw i8, ptr %0, i64 8
  %17 = tail call noundef ptr @_ZNSt13basic_filebufIcSt11char_traitsIcEE5closeEv(ptr noundef nonnull align 8 dereferenceable(240) %16)
  %.not.i = icmp eq ptr %17, null
  br i1 %.not.i, label %18, label %_ZNSt14basic_ofstreamIcSt11char_traitsIcEE5closeEv.exit

18:                                               ; preds = %_ZN2cv9BitStream10writeBlockEv.exit
  %19 = load ptr, ptr %0, align 8, !tbaa !29
  %20 = getelementptr i8, ptr %19, i64 -24
  %21 = load i64, ptr %20, align 8
  %22 = getelementptr inbounds i8, ptr %0, i64 %21
  %23 = getelementptr inbounds nuw i8, ptr %22, i64 32
  %24 = load i32, ptr %23, align 8, !tbaa !31
  %25 = or i32 %24, 4
  tail call void @_ZNSt9basic_iosIcSt11char_traitsIcEE5clearESt12_Ios_Iostate(ptr noundef nonnull align 8 dereferenceable(264) %22, i32 noundef %25)
  br label %_ZNSt14basic_ofstreamIcSt11char_traitsIcEE5closeEv.exit

_ZNSt14basic_ofstreamIcSt11char_traitsIcEE5closeEv.exit: ; preds = %_ZN2cv9BitStream10writeBlockEv.exit, %18
  ret void
}